target datalayout = "e-m:e-p270:32:32-p271:32:32-p272:64:64-i64:64-i128:128-f80:128-n8:16:32:64-S128"
target triple = "x86_64-pc-linux-gnu"

%"class.doctest::String" = type { %union.anon.7 }
%union.anon.7 = type { %"struct.doctest::String::view", [8 x i8] }
%"struct.doctest::String::view" = type { ptr, i32, i32 }

@_ZN7doctest6StringD1Ev = dso_local unnamed_addr alias void (ptr), ptr @_ZN7doctest6StringD2Ev

; Function Attrs: mustprogress nounwind uwtable
define linkonce_odr dso_local noundef zeroext i1 @_ZNK7doctest6String9isOnStackEv(ptr noundef nonnull align 8 dereferenceable(24) %0) #1 comdat align 2 {
  %2 = alloca ptr, align 8
  store ptr %0, ptr %2, align 8, !tbaa !59
  %3 = load ptr, ptr %2, align 8
  %4 = getelementptr inbounds nuw %"class.doctest::String", ptr %3, i32 0, i32 0
  %5 = getelementptr inbounds nuw [24 x i8], ptr %4, i64 0, i64 23
  %6 = load i8, ptr %5, align 1, !tbaa !55
  %7 = sext i8 %6 to i32
  %8 = and i32 %7, 128
  %9 = icmp eq i32 %8, 0
  ret i1 %9
}

; Function Attrs: mustprogress uwtable
define linkonce_odr dso_local void @_ZN7doctest6detail11toStreamLitIiEENS_6StringET_(ptr dead_on_unwind noalias writable sret(%"class.doctest::String") align 8 %0, i32 noundef %1) #8 comdat {
  %3 = alloca ptr, align 8
  %4 = alloca i32, align 4
  %5 = alloca ptr, align 8
  store ptr %0, ptr %3, align 8
  store i32 %1, ptr %4, align 4, !tbaa !4
  call void @llvm.lifetime.start.p0(i64 8, ptr %5) #7
  %6 = call noundef ptr @_ZN7doctest6detail8tlssPushEv()
  store ptr %6, ptr %5, align 8, !tbaa !67
  %7 = load ptr, ptr %5, align 8, !tbaa !67
  %8 = load i32, ptr %4, align 4, !tbaa !4
  %9 = call noundef nonnull align 8 dereferenceable(8) ptr @_ZNSolsEi(ptr noundef nonnull align 8 dereferenceable(8) %7, i32 noundef %8)
  call void @_ZN7doctest6detail7tlssPopEv(ptr dead_on_unwind writable sret(%"class.doctest::String") align 8 %0)
  call void @llvm.lifetime.end.p0(i64 8, ptr %5) #7
  ret void
}

; Function Attrs: mustprogress nounwind uwtable
define linkonce_odr dso_local noundef ptr @_ZN7doctest6String5c_strEv(ptr noundef nonnull align 8 dereferenceable(24) %0) #1 comdat align 2 {
  %2 = alloca ptr, align 8
  %3 = alloca ptr, align 8
  store ptr %0, ptr %3, align 8, !tbaa !59
  %4 = load ptr, ptr %3, align 8
  %5 = call noundef zeroext i1 @_ZNK7doctest6String9isOnStackEv(ptr noundef nonnull align 8 dereferenceable(24) %4) #7
  br i1 %5, label %6, label %9

6:                                                ; preds = %1
  %7 = getelementptr inbounds nuw %"class.doctest::String", ptr %4, i32 0, i32 0
  %8 = getelementptr inbounds [24 x i8], ptr %7, i64 0, i64 0
  store ptr %8, ptr %2, align 8
  br label %13

9:                                                ; preds = %1
  %10 = getelementptr inbounds nuw %"class.doctest::String", ptr %4, i32 0, i32 0
  %11 = getelementptr inbounds nuw %"struct.doctest::String::view", ptr %10, i32 0, i32 0
  %12 = load ptr, ptr %11, align 8, !tbaa !55
  store ptr %12, ptr %2, align 8
  br label %13

13:                                               ; preds = %9, %6
  %14 = load ptr, ptr %2, align 8
  ret ptr %14
}

; Function Attrs: mustprogress uwtable
define dso_local void @_ZN7doctest8toStringEi(ptr dead_on_unwind noalias writable sret(%"class.doctest::String") align 8 %0, i32 noundef %1) #8 {
  %3 = alloca ptr, align 8
  %4 = alloca i32, align 4
  store ptr %0, ptr %3, align 8
  store i32 %1, ptr %4, align 4, !tbaa !4
  %5 = load i32, ptr %4, align 4, !tbaa !4
  call void @_ZN7doctest6detail11toStreamLitIiEENS_6StringET_(ptr dead_on_unwind writable sret(%"class.doctest::String") align 8 %0, i32 noundef %5)
  ret void
}

; Function Attrs: mustprogress uwtable
define dso_local void @_ZN7doctest7Context9setOptionEPKci(ptr noundef nonnull align 8 dereferenceable(8) %0, ptr noundef %1, i32 noundef %2) #8 align 2 personality ptr @__gxx_personality_v0 {
  %4 = alloca ptr, align 8
  %5 = alloca ptr, align 8
  %6 = alloca i32, align 4
  %7 = alloca %"class.doctest::String", align 8
  %8 = alloca ptr, align 8
  %9 = alloca i32, align 4
  store ptr %0, ptr %4, align 8, !tbaa !306
  store ptr %1, ptr %5, align 8, !tbaa !14
  store i32 %2, ptr %6, align 4, !tbaa !4
  %10 = load ptr, ptr %4, align 8
  %11 = load ptr, ptr %5, align 8, !tbaa !14
  call void @llvm.lifetime.start.p0(i64 24, ptr %7) #7
  %12 = load i32, ptr %6, align 4, !tbaa !4
  call void @_ZN7doctest8toStringEi(ptr dead_on_unwind writable sret(%"class.doctest::String") align 8 %7, i32 noundef %12)
  %13 = invoke noundef ptr @_ZN7doctest6String5c_strEv(ptr noundef nonnull align 8 dereferenceable(24) %7)
          to label %14 unwind label %16

14:                                               ; preds = %3
  invoke void @_ZN7doctest7Context9setOptionEPKcS2_(ptr noundef nonnull align 8 dereferenceable(8) %10, ptr noundef %11, ptr noundef %13)
          to label %15 unwind label %16

15:                                               ; preds = %14
  call void @_ZN7doctest6StringD1Ev(ptr noundef nonnull align 8 dereferenceable(24) %7) #7
  call void @llvm.lifetime.end.p0(i64 24, ptr %7) #7
  ret void

16:                                               ; preds = %14, %3
  %17 = landingpad { ptr, i32 }
          cleanup
  %18 = extractvalue { ptr, i32 } %17, 0
  store ptr %18, ptr %8, align 8
  %19 = extractvalue { ptr, i32 } %17, 1
  store i32 %19, ptr %9, align 4
  call void @_ZN7doctest6StringD1Ev(ptr noundef nonnull align 8 dereferenceable(24) %7) #7
  call void @llvm.lifetime.end.p0(i64 24, ptr %7) #7
  br label %20

20:                                               ; preds = %16
  %21 = load ptr, ptr %8, align 8
  %22 = load i32, ptr %9, align 4
  %23 = insertvalue { ptr, i32 } poison, ptr %21, 0
  %24 = insertvalue { ptr, i32 } %23, i32 %22, 1
  resume { ptr, i32 } %24
}