; Function Attrs: mustprogress uwtable
define dso_local void @_ZN7doctest7Context9setOptionEPKci(ptr noundef nonnull readonly align 8 captures(none) dereferenceable(8) %0, ptr noundef readonly captures(none) %1, i32 noundef %2) local_unnamed_addr #8 align 2 personality ptr @__gxx_personality_v0 {
  %4 = alloca %"class.doctest::String", align 8
  call void @llvm.lifetime.start.p0(i64 24, ptr nonnull %4) #49
  %5 = tail call noundef ptr @_ZN7doctest6detail8tlssPushEv(), !noalias !360
  %6 = tail call noundef nonnull align 8 dereferenceable(8) ptr @_ZNSolsEi(ptr noundef nonnull align 8 dereferenceable(8) getelementptr inbounds nuw (i8, ptr @_ZN7doctest6detail5g_ossE, i64 40), i32 noundef %2), !noalias !360
  call void @_ZN7doctest6detail7tlssPopEv(ptr dead_on_unwind nonnull writable sret(%"class.doctest::String") align 8 %4)
  %7 = getelementptr inbounds nuw i8, ptr %4, i64 23
  %8 = load i8, ptr %7, align 1, !tbaa !38
  %9 = load ptr, ptr %4, align 8
  %10 = icmp slt i8 %8, 0
  %.0.i = select i1 %10, ptr %9, ptr %4
  invoke void @_ZN7doctest7Context9setOptionEPKcS2_(ptr noundef nonnull align 8 dereferenceable(8) %0, ptr noundef %1, ptr noundef %.0.i)
          to label %11 unwind label %18

11:                                               ; preds = %3
  %12 = load i8, ptr %7, align 1, !tbaa !38
  %13 = icmp sgt i8 %12, -1
  br i1 %13, label %_ZN7doctest6StringD2Ev.exit, label %14

14:                                               ; preds = %11
  %15 = load ptr, ptr %4, align 8, !tbaa !38
  %16 = icmp eq ptr %15, null
  br i1 %16, label %_ZN7doctest6StringD2Ev.exit, label %17

17:                                               ; preds = %14
  call void @_ZdaPv(ptr noundef nonnull %15) #48
  br label %_ZN7doctest6StringD2Ev.exit

_ZN7doctest6StringD2Ev.exit:                      ; preds = %11, %14, %17
  call void @llvm.lifetime.end.p0(i64 24, ptr nonnull %4) #49
  ret void

18:                                               ; preds = %3
  %19 = landingpad { ptr, i32 }
          cleanup
  %20 = load i8, ptr %7, align 1, !tbaa !38
  %21 = icmp sgt i8 %20, -1
  br i1 %21, label %_ZN7doctest6StringD2Ev.exit4, label %22

22:                                               ; preds = %18
  %23 = load ptr, ptr %4, align 8, !tbaa !38
  %24 = icmp eq ptr %23, null
  br i1 %24, label %_ZN7doctest6StringD2Ev.exit4, label %25

25:                                               ; preds = %22
  call void @_ZdaPv(ptr noundef nonnull %23) #48
  br label %_ZN7doctest6StringD2Ev.exit4

_ZN7doctest6StringD2Ev.exit4:                     ; preds = %18, %22, %25
  call void @llvm.lifetime.end.p0(i64 24, ptr nonnull %4) #49
  resume { ptr, i32 } %19
}